
module asm ".section \22.export_symbol\22,\22a\22 ; __export_symbol_fsstack_copy_inode_size: ; .asciz \22GPL\22 ; .asciz \22\22 ; .balign 8 ; .quad fsstack_copy_inode_size ; .previous"
module asm ".section \22.export_symbol\22,\22a\22 ; __export_symbol_fsstack_copy_attr_all: ; .asciz \22GPL\22 ; .asciz \22\22 ; .balign 8 ; .quad fsstack_copy_attr_all ; .previous"

@__UNIQUE_ID___addressable_fsstack_copy_inode_size287 = internal global ptr @fsstack_copy_inode_size, section ".discard.addressable", align 8
@__UNIQUE_ID___addressable_fsstack_copy_attr_all288 = internal global ptr @fsstack_copy_attr_all, section ".discard.addressable", align 8
@llvm.compiler.used = appending global [2 x ptr] [ptr @__UNIQUE_ID___addressable_fsstack_copy_attr_all288, ptr @__UNIQUE_ID___addressable_fsstack_copy_inode_size287], section "llvm.metadata"

; Function Attrs: fn_ret_thunk_extern mustprogress nofree norecurse nosync nounwind null_pointer_is_valid willreturn memory(argmem: readwrite)
define dso_local void @fsstack_copy_inode_size(ptr nocapture noundef writeonly %0, ptr nocapture noundef readonly %1) #0 align 16 {
  %3 = getelementptr inbounds i8, ptr %1, i64 80
  %4 = load i64, ptr %3, align 8
  %5 = getelementptr inbounds i8, ptr %1, i64 144
  %6 = load i64, ptr %5, align 8
  %7 = getelementptr inbounds i8, ptr %0, i64 80
  store i64 %4, ptr %7, align 8
  %8 = getelementptr inbounds i8, ptr %0, i64 144
  store i64 %6, ptr %8, align 8
  ret void
}

; Function Attrs: fn_ret_thunk_extern nounwind null_pointer_is_valid
define dso_local void @fsstack_copy_attr_all(ptr noundef %0, ptr nocapture noundef readonly %1) #1 align 16 {
  %3 = load i16, ptr %1, align 8
  store i16 %3, ptr %0, align 8
  %4 = getelementptr inbounds i8, ptr %0, i64 4
  %5 = getelementptr inbounds i8, ptr %1, i64 4
  %6 = load i32, ptr %5, align 4
  store i32 %6, ptr %4, align 4
  %7 = getelementptr inbounds i8, ptr %0, i64 8
  %8 = getelementptr inbounds i8, ptr %1, i64 8
  %9 = load i32, ptr %8, align 8
  store i32 %9, ptr %7, align 8
  %10 = getelementptr inbounds i8, ptr %1, i64 76
  %11 = load i32, ptr %10, align 4
  %12 = getelementptr inbounds i8, ptr %0, i64 76
  store i32 %11, ptr %12, align 4
  %13 = getelementptr inbounds i8, ptr %1, i64 88
  %14 = load i64, ptr %13, align 8
  %15 = getelementptr inbounds i8, ptr %1, i64 96
  %16 = load i64, ptr %15, align 8
  %17 = getelementptr inbounds i8, ptr %0, i64 88
  store i64 %14, ptr %17, align 8
  %18 = getelementptr inbounds i8, ptr %0, i64 96
  store i64 %16, ptr %18, align 8
  %19 = getelementptr inbounds i8, ptr %1, i64 104
  %20 = load i64, ptr %19, align 8
  %21 = getelementptr inbounds i8, ptr %1, i64 112
  %22 = load i64, ptr %21, align 8
  %23 = getelementptr inbounds i8, ptr %0, i64 104
  store i64 %20, ptr %23, align 8
  %24 = getelementptr inbounds i8, ptr %0, i64 112
  store i64 %22, ptr %24, align 8
  %25 = getelementptr inbounds i8, ptr %1, i64 120
  %26 = load i64, ptr %25, align 8
  %27 = getelementptr inbounds i8, ptr %1, i64 128
  %28 = load i64, ptr %27, align 8
  %29 = getelementptr inbounds i8, ptr %0, i64 120
  store i64 %26, ptr %29, align 8
  %30 = getelementptr inbounds i8, ptr %0, i64 128
  store i64 %28, ptr %30, align 8
  %31 = getelementptr inbounds i8, ptr %1, i64 142
  %32 = load i8, ptr %31, align 2
  %33 = getelementptr inbounds i8, ptr %0, i64 142
  store i8 %32, ptr %33, align 2
  %34 = getelementptr inbounds i8, ptr %1, i64 12
  %35 = load i32, ptr %34, align 4
  %36 = getelementptr inbounds i8, ptr %0, i64 12
  store i32 %35, ptr %36, align 4
  %37 = getelementptr inbounds i8, ptr %1, i64 72
  %38 = load i32, ptr %37, align 8
  tail call void @set_nlink(ptr noundef %0, i32 noundef %38) #3
  ret void
}

; Function Attrs: null_pointer_is_valid
declare dso_local void @set_nlink(ptr noundef, i32 noundef) local_unnamed_addr #2


!llvm.module.flags = !{!0, !1, !2, !3, !4}

!0 = !{i32 1, !"wchar_size", i32 2}
!1 = !{i32 8, !"cf-protection-branch", i32 1}
!2 = !{i32 4, !"function_return_thunk_extern", i32 1}
!3 = !{i32 4, !"indirect_branch_cs_prefix", i32 1}
!4 = !{i32 4, !"SkipRaxSetup", i32 1}
